; Function Attrs: mustprogress nounwind uwtable
define hidden noundef zeroext i1 @_ZN8CallNode27may_modify_arraycopy_helperEPK10TypeOopPtrS2_P11PhaseValues(ptr nocapture nonnull readnone align 8 %0, ptr noundef %1, ptr noundef %2, ptr nocapture noundef readonly %3) local_unnamed_addr #2 align 2 {
  %5 = load ptr, ptr %1, align 8
  %6 = getelementptr inbounds i8, ptr %5, i64 168
  %7 = load ptr, ptr %6, align 8
  %8 = tail call noundef zeroext i1 %7(ptr noundef nonnull align 8 dereferenceable(80) %1) #15
  br i1 %8, label %9, label %20

9:                                                ; preds = %4
  %10 = load ptr, ptr %2, align 8
  %11 = getelementptr inbounds i8, ptr %10, i64 168
  %12 = load ptr, ptr %11, align 8
  %13 = tail call noundef zeroext i1 %12(ptr noundef nonnull align 8 dereferenceable(80) %2) #15
  br i1 %13, label %14, label %20

14:                                               ; preds = %9
  %15 = getelementptr inbounds i8, ptr %1, i64 76
  %16 = load i32, ptr %15, align 4
  %17 = getelementptr inbounds i8, ptr %2, i64 76
  %18 = load i32, ptr %17, align 4
  %19 = icmp eq i32 %16, %18
  br label %90

20:                                               ; preds = %9, %4
  %21 = getelementptr inbounds i8, ptr %1, i64 16
  %22 = load i32, ptr %21, align 8
  %.not = icmp eq i32 %22, 21
  br i1 %.not, label %23, label %62

23:                                               ; preds = %20
  %24 = load ptr, ptr %1, align 8
  %25 = getelementptr inbounds i8, ptr %24, i64 232
  %26 = load ptr, ptr %25, align 8
  %27 = tail call noundef ptr %26(ptr noundef nonnull align 8 dereferenceable(80) %1) #15
  %28 = load ptr, ptr @_ZN5ciEnv13_Object_klassE, align 8
  %29 = icmp eq ptr %27, %28
  br i1 %29, label %._crit_edge, label %30

._crit_edge:                                      ; preds = %23
  %.pre = load i32, ptr %21, align 8
  br label %62

30:                                               ; preds = %23
  %31 = getelementptr inbounds i8, ptr %2, i64 16
  %32 = load i32, ptr %31, align 8
  %33 = icmp ne i32 %32, 22
  %.not2536 = icmp eq ptr %2, null
  %.not25 = or i1 %.not2536, %33
  br i1 %.not25, label %34, label %90

34:                                               ; preds = %30
  %35 = icmp ne i32 %32, 21
  %.not26 = or i1 %.not2536, %35
  br i1 %.not26, label %90, label %36

36:                                               ; preds = %34
  %37 = load ptr, ptr %1, align 8
  %38 = getelementptr inbounds i8, ptr %37, i64 272
  %39 = load ptr, ptr %38, align 8
  %40 = tail call noundef zeroext i1 %39(ptr noundef nonnull align 8 dereferenceable(80) %1) #15
  %41 = load ptr, ptr %2, align 8
  %42 = getelementptr inbounds i8, ptr %41, i64 272
  %43 = load ptr, ptr %42, align 8
  %44 = tail call noundef zeroext i1 %43(ptr noundef nonnull align 8 dereferenceable(80) %2) #15
  %45 = load ptr, ptr %1, align 8
  %46 = getelementptr inbounds i8, ptr %45, i64 256
  %47 = load ptr, ptr %46, align 8
  %48 = tail call noundef zeroext i1 %47(ptr noundef nonnull align 8 dereferenceable(80) %1, ptr noundef nonnull %2, i1 noundef zeroext %40, i1 noundef zeroext %44) #15
  br i1 %48, label %90, label %49

49:                                               ; preds = %36
  %50 = load ptr, ptr %2, align 8
  %51 = getelementptr inbounds i8, ptr %50, i64 272
  %52 = load ptr, ptr %51, align 8
  %53 = tail call noundef zeroext i1 %52(ptr noundef nonnull align 8 dereferenceable(80) %2) #15
  %54 = load ptr, ptr %1, align 8
  %55 = getelementptr inbounds i8, ptr %54, i64 272
  %56 = load ptr, ptr %55, align 8
  %57 = tail call noundef zeroext i1 %56(ptr noundef nonnull align 8 dereferenceable(80) %1) #15
  %58 = load ptr, ptr %2, align 8
  %59 = getelementptr inbounds i8, ptr %58, i64 256
  %60 = load ptr, ptr %59, align 8
  %61 = tail call noundef zeroext i1 %60(ptr noundef nonnull align 8 dereferenceable(80) %2, ptr noundef nonnull %1, i1 noundef zeroext %53, i1 noundef zeroext %57) #15
  br label %90

62:                                               ; preds = %._crit_edge, %20
  %63 = phi i32 [ %.pre, %._crit_edge ], [ %22, %20 ]
  %.not39 = icmp eq i32 %63, 22
  br i1 %.not39, label %64, label %90

64:                                               ; preds = %62
  %65 = getelementptr inbounds i8, ptr %2, i64 16
  %66 = load i32, ptr %65, align 8
  %67 = icmp ne i32 %66, 21
  %.not2840 = icmp eq ptr %2, null
  %.not28 = or i1 %.not2840, %67
  br i1 %.not28, label %68, label %90

68:                                               ; preds = %64
  %69 = icmp ne i32 %66, 22
  %.not29 = or i1 %.not2840, %69
  br i1 %.not29, label %90, label %70

70:                                               ; preds = %68
  %71 = getelementptr inbounds i8, ptr %1, i64 80
  %72 = load ptr, ptr %71, align 8
  %73 = getelementptr inbounds i8, ptr %72, i64 24
  %74 = load ptr, ptr %73, align 8
  %75 = load ptr, ptr @_ZN4Type6BOTTOME, align 8
  %76 = icmp eq ptr %74, %75
  br i1 %76, label %90, label %77

77:                                               ; preds = %70
  %78 = load ptr, ptr %1, align 8
  %79 = getelementptr inbounds i8, ptr %78, i64 192
  %80 = load ptr, ptr %79, align 8
  %81 = tail call noundef ptr %80(ptr noundef nonnull align 8 dereferenceable(80) %1, i64 noundef -2000000001) #15
  %82 = getelementptr inbounds i8, ptr %3, i64 16
  %83 = load ptr, ptr %82, align 8
  %84 = tail call noundef ptr @_ZN7Compile15find_alias_typeEPK7TypePtrbP7ciField(ptr noundef nonnull align 8 dereferenceable(2316) %83, ptr noundef %81, i1 noundef zeroext false, ptr noundef null) #15
  %85 = load i32, ptr %84, align 8
  %86 = load ptr, ptr %82, align 8
  %87 = tail call noundef ptr @_ZN7Compile15find_alias_typeEPK7TypePtrbP7ciField(ptr noundef nonnull align 8 dereferenceable(2316) %86, ptr noundef nonnull %2, i1 noundef zeroext false, ptr noundef null) #15
  %88 = load i32, ptr %87, align 8
  %89 = icmp eq i32 %85, %88
  br label %90

90:                                               ; preds = %49, %62, %70, %68, %64, %36, %34, %30, %77, %14
  %.0 = phi i1 [ %19, %14 ], [ %89, %77 ], [ false, %30 ], [ true, %34 ], [ true, %36 ], [ false, %64 ], [ true, %68 ], [ true, %70 ], [ true, %62 ], [ %61, %49 ]
  ret i1 %.0
}